; Function Attrs: mustprogress nofree norecurse nosync nounwind willreturn memory(argmem: read) uwtable
define dso_local noundef zeroext i1 @_ZNK4Luau20NormalizedStringType8isStringEv(ptr noundef nonnull readonly align 8 captures(none) dereferenceable(56) %0) local_unnamed_addr #7 align 2 {
  %2 = load i8, ptr %0, align 8, !tbaa !55, !range !34, !noundef !35
  %3 = trunc nuw i8 %2 to i1
  %4 = getelementptr inbounds nuw i8, ptr %0, i64 48
  %5 = load i64, ptr %4, align 8
  %6 = icmp eq i64 %5, 0
  %7 = select i1 %3, i1 %6, i1 false
  ret i1 %7
}